target datalayout = "e-m:e-p270:32:32-p271:32:32-p272:64:64-i64:64-i128:128-f80:128-n8:16:32:64-S128"
target triple = "x86_64-pc-linux-gnu"

%struct.expert_field = type { i32, i32 }

@hf_openflow_action_type = internal global i32 0, align 4
@hf_openflow_action_len = internal global i32 0, align 4
@hf_openflow_output_port = internal global i32 0, align 4
@hf_openflow_max_len = internal global i32 0, align 4
@ei_openflow_action_type = internal global %struct.expert_field zeroinitializer, align 4

; Function Attrs: null_pointer_is_valid sspstrong uwtable
define internal i32 @dissect_openflow_action_header(ptr noundef %0, ptr noundef %1, ptr noundef %2, i32 noundef %3) #0 {
  %5 = alloca ptr, align 8
  %6 = alloca ptr, align 8
  %7 = alloca ptr, align 8
  %8 = alloca i32, align 4
  %9 = alloca i16, align 2
  %10 = alloca i16, align 2
  %11 = alloca ptr, align 8
  store ptr %0, ptr %5, align 8
  store ptr %1, ptr %6, align 8
  store ptr %2, ptr %7, align 8
  store i32 %3, ptr %8, align 4
  call void @llvm.lifetime.start.p0(i64 2, ptr %9) #3
  call void @llvm.lifetime.start.p0(i64 2, ptr %10) #3
  call void @llvm.lifetime.start.p0(i64 8, ptr %11) #3
  %12 = load ptr, ptr %5, align 8
  %13 = load i32, ptr %8, align 4
  %14 = call zeroext i16 @tvb_get_ntohs(ptr noundef %12, i32 noundef %13)
  store i16 %14, ptr %9, align 2
  %15 = load ptr, ptr %7, align 8
  %16 = load i32, ptr @hf_openflow_action_type, align 4
  %17 = load ptr, ptr %5, align 8
  %18 = load i32, ptr %8, align 4
  %19 = call ptr @proto_tree_add_item(ptr noundef %15, i32 noundef %16, ptr noundef %17, i32 noundef %18, i32 noundef 2, i32 noundef 0)
  store ptr %19, ptr %11, align 8
  %20 = load i32, ptr %8, align 4
  %21 = add i32 %20, 2
  store i32 %21, ptr %8, align 4
  %22 = load ptr, ptr %5, align 8
  %23 = load i32, ptr %8, align 4
  %24 = call zeroext i16 @tvb_get_ntohs(ptr noundef %22, i32 noundef %23)
  store i16 %24, ptr %10, align 2
  %25 = load ptr, ptr %7, align 8
  %26 = load i32, ptr @hf_openflow_action_len, align 4
  %27 = load ptr, ptr %5, align 8
  %28 = load i32, ptr %8, align 4
  %29 = call ptr @proto_tree_add_item(ptr noundef %25, i32 noundef %26, ptr noundef %27, i32 noundef %28, i32 noundef 2, i32 noundef 0)
  %30 = load i32, ptr %8, align 4
  %31 = add i32 %30, 2
  store i32 %31, ptr %8, align 4
  %32 = load i16, ptr %9, align 2
  %33 = zext i16 %32 to i32
  switch i32 %33, label %49 [
    i32 0, label %34
  ]

34:                                               ; preds = %4
  %35 = load ptr, ptr %7, align 8
  %36 = load i32, ptr @hf_openflow_output_port, align 4
  %37 = load ptr, ptr %5, align 8
  %38 = load i32, ptr %8, align 4
  %39 = call ptr @proto_tree_add_item(ptr noundef %35, i32 noundef %36, ptr noundef %37, i32 noundef %38, i32 noundef 2, i32 noundef 0)
  %40 = load i32, ptr %8, align 4
  %41 = add i32 %40, 2
  store i32 %41, ptr %8, align 4
  %42 = load ptr, ptr %7, align 8
  %43 = load i32, ptr @hf_openflow_max_len, align 4
  %44 = load ptr, ptr %5, align 8
  %45 = load i32, ptr %8, align 4
  %46 = call ptr @proto_tree_add_item(ptr noundef %42, i32 noundef %43, ptr noundef %44, i32 noundef %45, i32 noundef 2, i32 noundef 0)
  %47 = load i32, ptr %8, align 4
  %48 = add i32 %47, 2
  store i32 %48, ptr %8, align 4
  br label %58

49:                                               ; preds = %4
  %50 = load ptr, ptr %6, align 8
  %51 = load ptr, ptr %11, align 8
  %52 = call ptr @expert_add_info(ptr noundef %50, ptr noundef %51, ptr noundef @ei_openflow_action_type)
  %53 = load i16, ptr %10, align 2
  %54 = zext i16 %53 to i32
  %55 = sub i32 %54, 4
  %56 = load i32, ptr %8, align 4
  %57 = add i32 %56, %55
  store i32 %57, ptr %8, align 4
  br label %58

58:                                               ; preds = %49, %34
  %59 = load i32, ptr %8, align 4
  call void @llvm.lifetime.end.p0(i64 8, ptr %11) #3
  call void @llvm.lifetime.end.p0(i64 2, ptr %10) #3
  call void @llvm.lifetime.end.p0(i64 2, ptr %9) #3
  ret i32 %59
}