; Function Attrs: null_pointer_is_valid sspstrong uwtable
define internal fastcc range(i32 16, 65612) i32 @dissect_openflow_action_header(ptr noundef %0, ptr noundef %1, ptr noundef %2, i32 noundef range(i32 16, 77) %3) unnamed_addr #0 {
  %5 = tail call zeroext i16 @tvb_get_ntohs(ptr noundef %0, i32 noundef %3)
  %6 = load i32, ptr @hf_openflow_action_type, align 4
  %7 = tail call ptr @proto_tree_add_item(ptr noundef %2, i32 noundef %6, ptr noundef %0, i32 noundef %3, i32 noundef 2, i32 noundef 0)
  %8 = add nuw nsw i32 %3, 2
  %9 = tail call zeroext i16 @tvb_get_ntohs(ptr noundef %0, i32 noundef %8)
  %10 = load i32, ptr @hf_openflow_action_len, align 4
  %11 = tail call ptr @proto_tree_add_item(ptr noundef %2, i32 noundef %10, ptr noundef %0, i32 noundef %8, i32 noundef 2, i32 noundef 0)
  %cond = icmp eq i16 %5, 0
  br i1 %cond, label %12, label %19

12:                                               ; preds = %4
  %13 = add nuw nsw i32 %3, 4
  %14 = load i32, ptr @hf_openflow_output_port, align 4
  %15 = tail call ptr @proto_tree_add_item(ptr noundef %2, i32 noundef %14, ptr noundef %0, i32 noundef %13, i32 noundef 2, i32 noundef 0)
  %16 = add nuw nsw i32 %3, 6
  %17 = load i32, ptr @hf_openflow_max_len, align 4
  %18 = tail call ptr @proto_tree_add_item(ptr noundef %2, i32 noundef %17, ptr noundef %0, i32 noundef %16, i32 noundef 2, i32 noundef 0)
  br label %22

19:                                               ; preds = %4
  %20 = tail call ptr @expert_add_info(ptr noundef %1, ptr noundef %7, ptr noundef nonnull @ei_openflow_action_type)
  %21 = zext i16 %9 to i32
  br label %22

22:                                               ; preds = %19, %12
  %.sink = phi i32 [ %21, %19 ], [ 8, %12 ]
  %23 = add nuw nsw i32 %3, %.sink
  ret i32 %23
}